; Function Attrs: mustprogress uwtable
define hidden noundef zeroext i1 @_ZN4lean6occursERKNS_5levelES2_(ptr noundef nonnull align 8 dereferenceable(8) %0, ptr noundef nonnull align 8 dereferenceable(8) %1) local_unnamed_addr #0 personality ptr @__gxx_personality_v0 {
  %3 = alloca %"class.lean::for_each_level_fn", align 8
  %4 = alloca i8, align 1
  call void @llvm.lifetime.start.p0(i64 1, ptr nonnull %4) #19
  store i8 0, ptr %4, align 1, !tbaa !71
  call void @llvm.lifetime.start.p0(i64 32, ptr nonnull %3) #19
  %5 = getelementptr inbounds nuw i8, ptr %3, i64 16
  %6 = getelementptr inbounds nuw i8, ptr %3, i64 24
  store ptr %4, ptr %3, align 8, !tbaa !72
  %.sroa.4.0..sroa_idx = getelementptr inbounds nuw i8, ptr %3, i64 8
  store ptr %0, ptr %.sroa.4.0..sroa_idx, align 8, !tbaa !39
  store ptr @"_ZNSt17_Function_handlerIFbRKN4lean5levelEEZNS0_6occursES3_S3_E3$_0E9_M_invokeERKSt9_Any_dataS3_", ptr %6, align 8, !tbaa !46
  store ptr @"_ZNSt17_Function_handlerIFbRKN4lean5levelEEZNS0_6occursES3_S3_E3$_0E10_M_managerERSt9_Any_dataRKS7_St18_Manager_operation", ptr %5, align 8, !tbaa !44
  invoke void @_ZN4lean17for_each_level_fn5applyERKNS_5levelE(ptr noundef nonnull align 8 dereferenceable(32) %3, ptr noundef nonnull align 8 dereferenceable(8) %1)
          to label %_ZN4lean17for_each_level_fnclERKNS_5levelE.exit.i unwind label %13

_ZN4lean17for_each_level_fnclERKNS_5levelE.exit.i: ; preds = %2
  %7 = load ptr, ptr %5, align 8, !tbaa !44
  %.not.i.i.i = icmp eq ptr %7, null
  br i1 %.not.i.i.i, label %"_ZN4lean8for_eachIZNS_6occursERKNS_5levelES3_E3$_0EEvS3_RKT_.exit", label %8

8:                                                ; preds = %_ZN4lean17for_each_level_fnclERKNS_5levelE.exit.i
  %9 = invoke noundef zeroext i1 %7(ptr noundef nonnull align 8 dereferenceable(32) %3, ptr noundef nonnull align 8 dereferenceable(32) %3, i32 noundef 3)
          to label %"_ZN4lean8for_eachIZNS_6occursERKNS_5levelES3_E3$_0EEvS3_RKT_.exit" unwind label %10

10:                                               ; preds = %8
  %11 = landingpad { ptr, i32 }
          catch ptr null
  %12 = extractvalue { ptr, i32 } %11, 0
  call void @__clang_call_terminate(ptr %12) #21
  unreachable

13:                                               ; preds = %2
  %14 = landingpad { ptr, i32 }
          cleanup
  %15 = load ptr, ptr %5, align 8, !tbaa !44
  %.not.i.i3.i = icmp eq ptr %15, null
  br i1 %.not.i.i3.i, label %_ZN4lean17for_each_level_fnD2Ev.exit4.i, label %16

16:                                               ; preds = %13
  %17 = invoke noundef zeroext i1 %15(ptr noundef nonnull align 8 dereferenceable(32) %3, ptr noundef nonnull align 8 dereferenceable(32) %3, i32 noundef 3)
          to label %_ZN4lean17for_each_level_fnD2Ev.exit4.i unwind label %18

18:                                               ; preds = %16
  %19 = landingpad { ptr, i32 }
          catch ptr null
  %20 = extractvalue { ptr, i32 } %19, 0
  call void @__clang_call_terminate(ptr %20) #21
  unreachable

_ZN4lean17for_each_level_fnD2Ev.exit4.i:          ; preds = %16, %13
  call void @llvm.lifetime.end.p0(i64 32, ptr nonnull %3) #19
  resume { ptr, i32 } %14

"_ZN4lean8for_eachIZNS_6occursERKNS_5levelES3_E3$_0EEvS3_RKT_.exit": ; preds = %_ZN4lean17for_each_level_fnclERKNS_5levelE.exit.i, %8
  call void @llvm.lifetime.end.p0(i64 32, ptr nonnull %3) #19
  %21 = load i8, ptr %4, align 1, !tbaa !71, !range !56, !noundef !57
  %22 = trunc nuw i8 %21 to i1
  call void @llvm.lifetime.end.p0(i64 1, ptr nonnull %4) #19
  ret i1 %22
}